target datalayout = "e-m:e-p270:32:32-p271:32:32-p272:64:64-i64:64-i128:128-f80:128-n8:16:32:64-S128"
target triple = "x86_64-pc-linux-gnu"

@GUC_check_errdetail_string = external global ptr, align 8
@.str.80 = private unnamed_addr constant [8 x i8] c"current\00", align 1
@.str.81 = private unnamed_addr constant [7 x i8] c"latest\00", align 1
@.str.82 = private unnamed_addr constant [50 x i8] c"\22recovery_target_timeline\22 is not a valid number.\00", align 1

; Function Attrs: nounwind uwtable
define dso_local zeroext i1 @check_recovery_target_timeline(ptr noundef %0, ptr noundef %1, i32 noundef %2) #0 {
  %4 = alloca i1, align 1
  %5 = alloca ptr, align 8
  %6 = alloca ptr, align 8
  %7 = alloca i32, align 4
  %8 = alloca i32, align 4
  %9 = alloca ptr, align 8
  %10 = alloca i32, align 4
  store ptr %0, ptr %5, align 8
  store ptr %1, ptr %6, align 8
  store i32 %2, ptr %7, align 4
  call void @llvm.lifetime.start.p0(i64 4, ptr %8) #14
  call void @llvm.lifetime.start.p0(i64 8, ptr %9) #14
  %11 = load ptr, ptr %5, align 8
  %12 = load ptr, ptr %11, align 8
  %13 = call i32 @strcmp(ptr noundef %12, ptr noundef @.str.80) #16
  %14 = icmp eq i32 %13, 0
  br i1 %14, label %15, label %16

15:                                               ; preds = %3
  store i32 0, ptr %8, align 4
  br label %40

16:                                               ; preds = %3
  %17 = load ptr, ptr %5, align 8
  %18 = load ptr, ptr %17, align 8
  %19 = call i32 @strcmp(ptr noundef %18, ptr noundef @.str.81) #16
  %20 = icmp eq i32 %19, 0
  br i1 %20, label %21, label %22

21:                                               ; preds = %16
  store i32 1, ptr %8, align 4
  br label %39

22:                                               ; preds = %16
  store i32 2, ptr %8, align 4
  %23 = call ptr @__errno_location() #17
  store i32 0, ptr %23, align 4
  %24 = load ptr, ptr %5, align 8
  %25 = load ptr, ptr %24, align 8
  %26 = call i64 @strtoul(ptr noundef %25, ptr noundef null, i32 noundef 0) #14
  %27 = call ptr @__errno_location() #17
  %28 = load i32, ptr %27, align 4
  %29 = icmp eq i32 %28, 22
  br i1 %29, label %34, label %30

30:                                               ; preds = %22
  %31 = call ptr @__errno_location() #17
  %32 = load i32, ptr %31, align 4
  %33 = icmp eq i32 %32, 34
  br i1 %33, label %34, label %38

34:                                               ; preds = %30, %22
  %35 = call ptr @__errno_location() #17
  %36 = load i32, ptr %35, align 4
  call void @pre_format_elog_string(i32 noundef %36, ptr noundef null)
  %37 = call ptr (ptr, ...) @format_elog_string(ptr noundef @.str.82)
  store ptr %37, ptr @GUC_check_errdetail_string, align 8
  store i1 false, ptr %4, align 1
  store i32 1, ptr %10, align 4
  br label %46

38:                                               ; preds = %30
  br label %39

39:                                               ; preds = %38, %21
  br label %40

40:                                               ; preds = %39, %15
  %41 = call ptr @guc_malloc(i32 noundef 21, i64 noundef 4)
  store ptr %41, ptr %9, align 8
  %42 = load i32, ptr %8, align 4
  %43 = load ptr, ptr %9, align 8
  store i32 %42, ptr %43, align 4
  %44 = load ptr, ptr %9, align 8
  %45 = load ptr, ptr %6, align 8
  store ptr %44, ptr %45, align 8
  store i1 true, ptr %4, align 1
  store i32 1, ptr %10, align 4
  br label %46

46:                                               ; preds = %40, %34
  call void @llvm.lifetime.end.p0(i64 8, ptr %9) #14
  call void @llvm.lifetime.end.p0(i64 4, ptr %8) #14
  %47 = load i1, ptr %4, align 1
  ret i1 %47
}