; Function Attrs: nounwind uwtable
define dso_local noundef zeroext i1 @check_recovery_target_timeline(ptr noundef readonly captures(none) %0, ptr noundef writeonly captures(none) %1, i32 noundef %2) local_unnamed_addr #2 {
  %4 = load ptr, ptr %0, align 8
  %5 = tail call i32 @strcmp(ptr noundef nonnull dereferenceable(1) %4, ptr noundef nonnull dereferenceable(8) @.str.80) #26
  %6 = icmp eq i32 %5, 0
  br i1 %6, label %17, label %7

7:                                                ; preds = %3
  %8 = tail call i32 @strcmp(ptr noundef nonnull dereferenceable(1) %4, ptr noundef nonnull dereferenceable(7) @.str.81) #26
  %9 = icmp eq i32 %8, 0
  br i1 %9, label %17, label %10

10:                                               ; preds = %7
  %11 = tail call ptr @__errno_location() #25
  store i32 0, ptr %11, align 4
  %12 = load ptr, ptr %0, align 8
  %13 = tail call i64 @strtoul(ptr noundef captures(none) %12, ptr noundef null, i32 noundef 0) #23
  %14 = load i32, ptr %11, align 4
  switch i32 %14, label %17 [
    i32 22, label %15
    i32 34, label %15
  ]

15:                                               ; preds = %10, %10
  tail call void @pre_format_elog_string(i32 noundef %14, ptr noundef null) #23
  %16 = tail call ptr (ptr, ...) @format_elog_string(ptr noundef nonnull @.str.82) #23
  store ptr %16, ptr @GUC_check_errdetail_string, align 8
  br label %19

17:                                               ; preds = %10, %7, %3
  %.07 = phi i32 [ 0, %3 ], [ 1, %7 ], [ 2, %10 ]
  %18 = tail call ptr @guc_malloc(i32 noundef 21, i64 noundef 4) #23
  store i32 %.07, ptr %18, align 4
  store ptr %18, ptr %1, align 8
  br label %19

19:                                               ; preds = %17, %15
  %.0 = phi i1 [ true, %17 ], [ false, %15 ]
  ret i1 %.0
}